target datalayout = "e-m:e-p270:32:32-p271:32:32-p272:64:64-i64:64-i128:128-f80:128-n8:16:32:64-S128"
target triple = "x86_64-pc-linux-gnu"

; Function Attrs: mustprogress uwtable
define noundef ptr @_ZN13duckdb_brotli27BrotliDecoderCreateInstanceEPFPvS0_mEPFvS0_S0_ES0_(ptr noundef %0, ptr noundef %1, ptr noundef %2) #1 {
  %4 = alloca ptr, align 8
  %5 = alloca ptr, align 8
  %6 = alloca ptr, align 8
  %7 = alloca ptr, align 8
  %8 = alloca ptr, align 8
  %9 = alloca i32, align 4
  store ptr %0, ptr %5, align 8, !tbaa !26
  store ptr %1, ptr %6, align 8, !tbaa !26
  store ptr %2, ptr %7, align 8, !tbaa !26
  call void @llvm.lifetime.start.p0(i64 8, ptr %8) #14
  store ptr null, ptr %8, align 8, !tbaa !3
  %10 = load ptr, ptr %5, align 8, !tbaa !26
  %11 = icmp ne ptr %10, null
  br i1 %11, label %17, label %12

12:                                               ; preds = %3
  %13 = load ptr, ptr %6, align 8, !tbaa !26
  %14 = icmp ne ptr %13, null
  br i1 %14, label %17, label %15

15:                                               ; preds = %12
  %16 = call noalias ptr @malloc(i64 noundef 5744) #15
  store ptr %16, ptr %8, align 8, !tbaa !3
  br label %28

17:                                               ; preds = %12, %3
  %18 = load ptr, ptr %5, align 8, !tbaa !26
  %19 = icmp ne ptr %18, null
  br i1 %19, label %20, label %27

20:                                               ; preds = %17
  %21 = load ptr, ptr %6, align 8, !tbaa !26
  %22 = icmp ne ptr %21, null
  br i1 %22, label %23, label %27

23:                                               ; preds = %20
  %24 = load ptr, ptr %5, align 8, !tbaa !26
  %25 = load ptr, ptr %7, align 8, !tbaa !26
  %26 = call noundef ptr %24(ptr noundef %25, i64 noundef 5744)
  store ptr %26, ptr %8, align 8, !tbaa !3
  br label %27

27:                                               ; preds = %23, %20, %17
  br label %28

28:                                               ; preds = %27, %15
  %29 = load ptr, ptr %8, align 8, !tbaa !3
  %30 = icmp eq ptr %29, null
  br i1 %30, label %31, label %32

31:                                               ; preds = %28
  store ptr null, ptr %4, align 8
  store i32 1, ptr %9, align 4
  br label %61

32:                                               ; preds = %28
  %33 = load ptr, ptr %8, align 8, !tbaa !3
  %34 = load ptr, ptr %5, align 8, !tbaa !26
  %35 = load ptr, ptr %6, align 8, !tbaa !26
  %36 = load ptr, ptr %7, align 8, !tbaa !26
  %37 = call noundef i32 @_ZN13duckdb_brotli22BrotliDecoderStateInitEPNS_24BrotliDecoderStateStructEPFPvS2_mEPFvS2_S2_ES2_(ptr noundef %33, ptr noundef %34, ptr noundef %35, ptr noundef %36)
  %38 = icmp ne i32 %37, 0
  br i1 %38, label %59, label %39

39:                                               ; preds = %32
  %40 = load ptr, ptr %5, align 8, !tbaa !26
  %41 = icmp ne ptr %40, null
  br i1 %41, label %47, label %42

42:                                               ; preds = %39
  %43 = load ptr, ptr %6, align 8, !tbaa !26
  %44 = icmp ne ptr %43, null
  br i1 %44, label %47, label %45

45:                                               ; preds = %42
  %46 = load ptr, ptr %8, align 8, !tbaa !3
  call void @free(ptr noundef %46) #14
  br label %58

47:                                               ; preds = %42, %39
  %48 = load ptr, ptr %5, align 8, !tbaa !26
  %49 = icmp ne ptr %48, null
  br i1 %49, label %50, label %57

50:                                               ; preds = %47
  %51 = load ptr, ptr %6, align 8, !tbaa !26
  %52 = icmp ne ptr %51, null
  br i1 %52, label %53, label %57

53:                                               ; preds = %50
  %54 = load ptr, ptr %6, align 8, !tbaa !26
  %55 = load ptr, ptr %7, align 8, !tbaa !26
  %56 = load ptr, ptr %8, align 8, !tbaa !3
  call void %54(ptr noundef %55, ptr noundef %56)
  br label %57

57:                                               ; preds = %53, %50, %47
  br label %58

58:                                               ; preds = %57, %45
  store ptr null, ptr %4, align 8
  store i32 1, ptr %9, align 4
  br label %61

59:                                               ; preds = %32
  %60 = load ptr, ptr %8, align 8, !tbaa !3
  store ptr %60, ptr %4, align 8
  store i32 1, ptr %9, align 4
  br label %61

61:                                               ; preds = %59, %58, %31
  call void @llvm.lifetime.end.p0(i64 8, ptr %8) #14
  %62 = load ptr, ptr %4, align 8
  ret ptr %62
}